; Function Attrs: nofree norecurse nosync nounwind memory(argmem: readwrite) uwtable
define internal void @Int24_To_Int8(ptr noundef writeonly captures(none) %0, i32 noundef %1, ptr noundef readonly captures(none) %2, i32 noundef %3, i32 noundef %4, ptr readnone captures(none) %5) #2 {
  %.not10 = icmp eq i32 %4, 0
  br i1 %.not10, label %._crit_edge, label %.lr.ph

.lr.ph:                                           ; preds = %6
  %7 = mul nsw i32 %3, 3
  %8 = sext i32 %7 to i64
  %9 = sext i32 %1 to i64
  br label %10

10:                                               ; preds = %.lr.ph, %10
  %.013 = phi ptr [ %0, %.lr.ph ], [ %15, %10 ]
  %.0812 = phi ptr [ %2, %.lr.ph ], [ %14, %10 ]
  %.0911 = phi i32 [ %4, %.lr.ph ], [ %11, %10 ]
  %11 = add i32 %.0911, -1
  %12 = getelementptr inbounds nuw i8, ptr %.0812, i64 2
  %13 = load i8, ptr %12, align 1, !tbaa !76
  store i8 %13, ptr %.013, align 1, !tbaa !76
  %14 = getelementptr inbounds i8, ptr %.0812, i64 %8
  %15 = getelementptr inbounds i8, ptr %.013, i64 %9
  %.not = icmp eq i32 %11, 0
  br i1 %.not, label %._crit_edge, label %10, !llvm.loop !106

._crit_edge:                                      ; preds = %10, %6
  ret void
}